; Function Attrs: mustprogress uwtable
define noundef nonnull align 8 dereferenceable(57) ptr @_ZN32pxrInternal_v0_24__pxrReserved__14SdfPathPattern11AppendChildERKNSt7__cxx1112basic_stringIcSt11char_traitsIcESaIcEEE(ptr noundef nonnull returned align 8 dereferenceable(57) %0, ptr noundef nonnull align 8 dereferenceable(32) %1) local_unnamed_addr #1 align 2 personality ptr @__gxx_personality_v0 {
  %3 = alloca %"class.pxrInternal_v0_24__pxrReserved__::SdfPredicateExpression", align 8
  %4 = getelementptr inbounds nuw i8, ptr %3, i64 48
  call void @llvm.memset.p0.i64(ptr noundef nonnull align 8 dereferenceable(80) %3, i8 0, i64 80, i1 false)
  call void @_ZNSt7__cxx1112basic_stringIcSt11char_traitsIcESaIcEEC1Ev(ptr noundef nonnull align 8 dereferenceable(32) %4) #17
  %5 = invoke noundef nonnull align 8 dereferenceable(57) ptr @_ZN32pxrInternal_v0_24__pxrReserved__14SdfPathPattern11AppendChildERKNSt7__cxx1112basic_stringIcSt11char_traitsIcESaIcEEEONS_22SdfPredicateExpressionE(ptr noundef nonnull align 8 dereferenceable(57) %0, ptr noundef nonnull align 8 dereferenceable(32) %1, ptr noundef nonnull align 8 dereferenceable(80) %3)
          to label %6 unwind label %15

6:                                                ; preds = %2
  call void @_ZNSt7__cxx1112basic_stringIcSt11char_traitsIcESaIcEED1Ev(ptr noundef nonnull align 8 dereferenceable(32) %4) #17
  %7 = getelementptr inbounds nuw i8, ptr %3, i64 24
  call void @_ZNSt6vectorIN32pxrInternal_v0_24__pxrReserved__22SdfPredicateExpression6FnCallESaIS2_EED2Ev(ptr noundef nonnull align 8 dereferenceable(24) %7) #17
  %8 = load ptr, ptr %3, align 8
  %.not.i.i.i.i = icmp eq ptr %8, null
  br i1 %.not.i.i.i.i, label %_ZN32pxrInternal_v0_24__pxrReserved__22SdfPredicateExpressionD2Ev.exit, label %9

9:                                                ; preds = %6
  %10 = getelementptr inbounds nuw i8, ptr %3, i64 16
  %11 = load ptr, ptr %10, align 8
  %12 = ptrtoint ptr %11 to i64
  %13 = ptrtoint ptr %8 to i64
  %14 = sub i64 %12, %13
  call void @_ZdlPvm(ptr noundef nonnull %8, i64 noundef %14) #19
  br label %_ZN32pxrInternal_v0_24__pxrReserved__22SdfPredicateExpressionD2Ev.exit

_ZN32pxrInternal_v0_24__pxrReserved__22SdfPredicateExpressionD2Ev.exit: ; preds = %6, %9
  ret ptr %0

15:                                               ; preds = %2
  %16 = landingpad { ptr, i32 }
          cleanup
  call void @_ZN32pxrInternal_v0_24__pxrReserved__22SdfPredicateExpressionD2Ev(ptr noundef nonnull align 8 dereferenceable(80) %3) #17
  resume { ptr, i32 } %16
}